; Function Attrs: mustprogress uwtable
define void @_ZNK5Ipopt10GenTMatrix15PrintImplOffsetERKNS_10JournalistENS_13EJournalLevelENS_16EJournalCategoryERKNSt7__cxx1112basic_stringIcSt11char_traitsIcESaIcEEEiSD_i(ptr nocapture noundef nonnull readonly align 8 dereferenceable(89) %0, ptr noundef nonnull align 8 dereferenceable(40) %1, i32 noundef %2, i32 noundef %3, ptr noundef nonnull align 8 dereferenceable(32) %4, i32 noundef %5, ptr noundef nonnull align 8 dereferenceable(32) %6, i32 noundef %7) local_unnamed_addr #0 align 2 {
  %9 = load ptr, ptr %1, align 8
  %10 = getelementptr inbounds i8, ptr %9, i64 16
  %11 = load ptr, ptr %10, align 8
  tail call void (ptr, i32, i32, ptr, ...) %11(ptr noundef nonnull align 8 dereferenceable(40) %1, i32 noundef %2, i32 noundef %3, ptr noundef nonnull @.str)
  %12 = tail call noundef ptr @_ZNKSt7__cxx1112basic_stringIcSt11char_traitsIcESaIcEE5c_strEv(ptr noundef nonnull align 8 dereferenceable(32) %6) #11
  %13 = tail call noundef ptr @_ZNKSt7__cxx1112basic_stringIcSt11char_traitsIcESaIcEE5c_strEv(ptr noundef nonnull align 8 dereferenceable(32) %4) #11
  %14 = getelementptr inbounds i8, ptr %0, i64 56
  %15 = load ptr, ptr %14, align 8
  %16 = getelementptr inbounds i8, ptr %15, i64 12
  %17 = load i32, ptr %16, align 4
  %18 = getelementptr inbounds i8, ptr %15, i64 16
  %19 = load i32, ptr %18, align 8
  %20 = getelementptr inbounds i8, ptr %0, i64 72
  %21 = load ptr, ptr %20, align 8
  %22 = getelementptr inbounds i8, ptr %21, i64 20
  %23 = load i32, ptr %22, align 4
  %24 = load ptr, ptr %1, align 8
  %25 = getelementptr inbounds i8, ptr %24, i64 32
  %26 = load ptr, ptr %25, align 8
  tail call void (ptr, i32, i32, i32, ptr, ...) %26(ptr noundef nonnull align 8 dereferenceable(40) %1, i32 noundef %2, i32 noundef %3, i32 noundef %5, ptr noundef nonnull @.str.1, ptr noundef %12, ptr noundef %13, i32 noundef %17, i32 noundef %19, i32 noundef %23)
  %27 = getelementptr inbounds i8, ptr %0, i64 88
  %28 = load i8, ptr %27, align 8
  %29 = and i8 %28, 1
  %.not = icmp eq i8 %29, 0
  br i1 %.not, label %60, label %.preheader

.preheader:                                       ; preds = %8
  %30 = load ptr, ptr %20, align 8
  %31 = getelementptr inbounds i8, ptr %30, i64 20
  %32 = load i32, ptr %31, align 4
  %33 = icmp sgt i32 %32, 0
  br i1 %33, label %.lr.ph, label %.loopexit

.lr.ph:                                           ; preds = %.preheader
  %34 = getelementptr inbounds i8, ptr %0, i64 80
  br label %35

35:                                               ; preds = %.lr.ph, %35
  %indvars.iv = phi i64 [ 0, %.lr.ph ], [ %indvars.iv.next, %35 ]
  %36 = tail call noundef ptr @_ZNKSt7__cxx1112basic_stringIcSt11char_traitsIcESaIcEE5c_strEv(ptr noundef nonnull align 8 dereferenceable(32) %6) #11
  %37 = tail call noundef ptr @_ZNKSt7__cxx1112basic_stringIcSt11char_traitsIcESaIcEE5c_strEv(ptr noundef nonnull align 8 dereferenceable(32) %4) #11
  %38 = load ptr, ptr %20, align 8
  %39 = getelementptr inbounds i8, ptr %38, i64 32
  %40 = load ptr, ptr %39, align 8
  %41 = getelementptr inbounds i32, ptr %40, i64 %indvars.iv
  %42 = load i32, ptr %41, align 4
  %43 = add nsw i32 %42, %7
  %44 = getelementptr inbounds i8, ptr %38, i64 24
  %45 = load ptr, ptr %44, align 8
  %46 = getelementptr inbounds i32, ptr %45, i64 %indvars.iv
  %47 = load i32, ptr %46, align 4
  %48 = load ptr, ptr %34, align 8
  %49 = getelementptr inbounds double, ptr %48, i64 %indvars.iv
  %50 = load double, ptr %49, align 8
  %51 = load ptr, ptr %1, align 8
  %52 = getelementptr inbounds i8, ptr %51, i64 32
  %53 = load ptr, ptr %52, align 8
  %54 = trunc i64 %indvars.iv to i32
  tail call void (ptr, i32, i32, i32, ptr, ...) %53(ptr noundef nonnull align 8 dereferenceable(40) %1, i32 noundef %2, i32 noundef %3, i32 noundef %5, ptr noundef nonnull @.str.2, ptr noundef %36, ptr noundef %37, i32 noundef %43, i32 noundef %47, double noundef %50, i32 noundef %54)
  %indvars.iv.next = add nuw nsw i64 %indvars.iv, 1
  %55 = load ptr, ptr %20, align 8
  %56 = getelementptr inbounds i8, ptr %55, i64 20
  %57 = load i32, ptr %56, align 4
  %58 = sext i32 %57 to i64
  %59 = icmp slt i64 %indvars.iv.next, %58
  br i1 %59, label %35, label %.loopexit, !llvm.loop !11

60:                                               ; preds = %8
  %61 = tail call noundef ptr @_ZNKSt7__cxx1112basic_stringIcSt11char_traitsIcESaIcEE5c_strEv(ptr noundef nonnull align 8 dereferenceable(32) %6) #11
  %62 = load ptr, ptr %1, align 8
  %63 = getelementptr inbounds i8, ptr %62, i64 32
  %64 = load ptr, ptr %63, align 8
  tail call void (ptr, i32, i32, i32, ptr, ...) %64(ptr noundef nonnull align 8 dereferenceable(40) %1, i32 noundef %2, i32 noundef %3, i32 noundef %5, ptr noundef nonnull @.str.3, ptr noundef %61)
  br label %.loopexit

.loopexit:                                        ; preds = %35, %.preheader, %60
  ret void
}